; Function Attrs: nounwind uwtable
define dso_local void @onig_free(ptr noundef %0) local_unnamed_addr #6 {
  %.not = icmp eq ptr %0, null
  br i1 %.not, label %3, label %2

2:                                                ; preds = %1
  tail call void @onig_free_body(ptr noundef nonnull %0)
  tail call void @free(ptr noundef nonnull %0) #22
  br label %3

3:                                                ; preds = %2, %1
  ret void
}